target datalayout = "e-m:e-p270:32:32-p271:32:32-p272:64:64-i64:64-i128:128-f80:128-n8:16:32:64-S128"
target triple = "x86_64-pc-linux-gnu"

%struct.MemBuffer = type { i64, i64, i64, i64, ptr }
%struct.WebPDemuxer = type { %struct.MemBuffer, i32, i32, i32, i32, i32, i32, i32, i32, ptr, ptr, ptr, ptr }

; Function Attrs: inlinehint nounwind uwtable
define internal i32 @GetLE16(ptr noundef %0) #4 {
  %2 = alloca ptr, align 8
  store ptr %0, ptr %2, align 8, !tbaa !34
  %3 = load ptr, ptr %2, align 8, !tbaa !34
  %4 = getelementptr inbounds i8, ptr %3, i64 0
  %5 = load i8, ptr %4, align 1, !tbaa !80
  %6 = zext i8 %5 to i32
  %7 = shl i32 %6, 0
  %8 = load ptr, ptr %2, align 8, !tbaa !34
  %9 = getelementptr inbounds i8, ptr %8, i64 1
  %10 = load i8, ptr %9, align 1, !tbaa !80
  %11 = zext i8 %10 to i32
  %12 = shl i32 %11, 8
  %13 = or i32 %7, %12
  ret i32 %13
}

; Function Attrs: inlinehint nounwind uwtable
define internal i32 @GetLE24(ptr noundef %0) #4 {
  %2 = alloca ptr, align 8
  store ptr %0, ptr %2, align 8, !tbaa !34
  %3 = load ptr, ptr %2, align 8, !tbaa !34
  %4 = call i32 @GetLE16(ptr noundef %3)
  %5 = load ptr, ptr %2, align 8, !tbaa !34
  %6 = getelementptr inbounds i8, ptr %5, i64 2
  %7 = load i8, ptr %6, align 1, !tbaa !80
  %8 = zext i8 %7 to i32
  %9 = shl i32 %8, 16
  %10 = or i32 %4, %9
  ret i32 %10
}

; Function Attrs: inlinehint nounwind uwtable
define internal i32 @GetLE32(ptr noundef %0) #4 {
  %2 = alloca ptr, align 8
  store ptr %0, ptr %2, align 8, !tbaa !34
  %3 = load ptr, ptr %2, align 8, !tbaa !34
  %4 = call i32 @GetLE16(ptr noundef %3)
  %5 = load ptr, ptr %2, align 8, !tbaa !34
  %6 = getelementptr inbounds i8, ptr %5, i64 2
  %7 = call i32 @GetLE16(ptr noundef %6)
  %8 = shl i32 %7, 16
  %9 = or i32 %4, %8
  ret i32 %9
}

; Function Attrs: inlinehint nounwind uwtable
define internal i32 @ReadLE24s(ptr noundef %0) #4 {
  %2 = alloca ptr, align 8
  %3 = alloca ptr, align 8
  %4 = alloca i32, align 4
  store ptr %0, ptr %2, align 8, !tbaa !10
  call void @llvm.lifetime.start.p0(i64 8, ptr %3) #7
  %5 = load ptr, ptr %2, align 8, !tbaa !10
  %6 = getelementptr inbounds nuw %struct.MemBuffer, ptr %5, i32 0, i32 4
  %7 = load ptr, ptr %6, align 8, !tbaa !39
  %8 = load ptr, ptr %2, align 8, !tbaa !10
  %9 = getelementptr inbounds nuw %struct.MemBuffer, ptr %8, i32 0, i32 0
  %10 = load i64, ptr %9, align 8, !tbaa !54
  %11 = getelementptr inbounds nuw i8, ptr %7, i64 %10
  store ptr %11, ptr %3, align 8, !tbaa !34
  call void @llvm.lifetime.start.p0(i64 4, ptr %4) #7
  %12 = load ptr, ptr %3, align 8, !tbaa !34
  %13 = call i32 @GetLE24(ptr noundef %12)
  store i32 %13, ptr %4, align 4, !tbaa !8
  %14 = load ptr, ptr %2, align 8, !tbaa !10
  call void @Skip(ptr noundef %14, i64 noundef 3)
  %15 = load i32, ptr %4, align 4, !tbaa !8
  call void @llvm.lifetime.end.p0(i64 4, ptr %4) #7
  call void @llvm.lifetime.end.p0(i64 8, ptr %3) #7
  ret i32 %15
}

; Function Attrs: inlinehint nounwind uwtable
define internal zeroext i8 @ReadByte(ptr noundef %0) #4 {
  %2 = alloca ptr, align 8
  %3 = alloca i8, align 1
  store ptr %0, ptr %2, align 8, !tbaa !10
  call void @llvm.lifetime.start.p0(i64 1, ptr %3) #7
  %4 = load ptr, ptr %2, align 8, !tbaa !10
  %5 = getelementptr inbounds nuw %struct.MemBuffer, ptr %4, i32 0, i32 4
  %6 = load ptr, ptr %5, align 8, !tbaa !39
  %7 = load ptr, ptr %2, align 8, !tbaa !10
  %8 = getelementptr inbounds nuw %struct.MemBuffer, ptr %7, i32 0, i32 0
  %9 = load i64, ptr %8, align 8, !tbaa !54
  %10 = getelementptr inbounds nuw i8, ptr %6, i64 %9
  %11 = load i8, ptr %10, align 1, !tbaa !80
  store i8 %11, ptr %3, align 1, !tbaa !80
  %12 = load ptr, ptr %2, align 8, !tbaa !10
  call void @Skip(ptr noundef %12, i64 noundef 1)
  %13 = load i8, ptr %3, align 1, !tbaa !80
  call void @llvm.lifetime.end.p0(i64 1, ptr %3) #7
  ret i8 %13
}

; Function Attrs: inlinehint nounwind uwtable
define internal i32 @SizeIsInvalid(ptr noundef %0, i64 noundef %1) #4 {
  %3 = alloca ptr, align 8
  %4 = alloca i64, align 8
  store ptr %0, ptr %3, align 8, !tbaa !10
  store i64 %1, ptr %4, align 8, !tbaa !35
  %5 = load i64, ptr %4, align 8, !tbaa !35
  %6 = load ptr, ptr %3, align 8, !tbaa !10
  %7 = getelementptr inbounds nuw %struct.MemBuffer, ptr %6, i32 0, i32 2
  %8 = load i64, ptr %7, align 8, !tbaa !20
  %9 = load ptr, ptr %3, align 8, !tbaa !10
  %10 = getelementptr inbounds nuw %struct.MemBuffer, ptr %9, i32 0, i32 0
  %11 = load i64, ptr %10, align 8, !tbaa !54
  %12 = sub i64 %8, %11
  %13 = icmp ugt i64 %5, %12
  %14 = zext i1 %13 to i32
  ret i32 %14
}

; Function Attrs: inlinehint nounwind uwtable
define internal i32 @ReadLE32(ptr noundef %0) #4 {
  %2 = alloca ptr, align 8
  %3 = alloca ptr, align 8
  %4 = alloca i32, align 4
  store ptr %0, ptr %2, align 8, !tbaa !10
  call void @llvm.lifetime.start.p0(i64 8, ptr %3) #7
  %5 = load ptr, ptr %2, align 8, !tbaa !10
  %6 = getelementptr inbounds nuw %struct.MemBuffer, ptr %5, i32 0, i32 4
  %7 = load ptr, ptr %6, align 8, !tbaa !39
  %8 = load ptr, ptr %2, align 8, !tbaa !10
  %9 = getelementptr inbounds nuw %struct.MemBuffer, ptr %8, i32 0, i32 0
  %10 = load i64, ptr %9, align 8, !tbaa !54
  %11 = getelementptr inbounds nuw i8, ptr %7, i64 %10
  store ptr %11, ptr %3, align 8, !tbaa !34
  call void @llvm.lifetime.start.p0(i64 4, ptr %4) #7
  %12 = load ptr, ptr %3, align 8, !tbaa !34
  %13 = call i32 @GetLE32(ptr noundef %12)
  store i32 %13, ptr %4, align 4, !tbaa !8
  %14 = load ptr, ptr %2, align 8, !tbaa !10
  call void @Skip(ptr noundef %14, i64 noundef 4)
  %15 = load i32, ptr %4, align 4, !tbaa !8
  call void @llvm.lifetime.end.p0(i64 4, ptr %4) #7
  call void @llvm.lifetime.end.p0(i64 8, ptr %3) #7
  ret i32 %15
}

; Function Attrs: inlinehint nounwind uwtable
define internal void @Skip(ptr noundef %0, i64 noundef %1) #4 {
  %3 = alloca ptr, align 8
  %4 = alloca i64, align 8
  store ptr %0, ptr %3, align 8, !tbaa !10
  store i64 %1, ptr %4, align 8, !tbaa !35
  %5 = load i64, ptr %4, align 8, !tbaa !35
  %6 = load ptr, ptr %3, align 8, !tbaa !10
  %7 = getelementptr inbounds nuw %struct.MemBuffer, ptr %6, i32 0, i32 0
  %8 = load i64, ptr %7, align 8, !tbaa !54
  %9 = add i64 %8, %5
  store i64 %9, ptr %7, align 8, !tbaa !54
  ret void
}

; Function Attrs: inlinehint nounwind uwtable
define internal i64 @MemDataSize(ptr noundef %0) #4 {
  %2 = alloca ptr, align 8
  store ptr %0, ptr %2, align 8, !tbaa !10
  %3 = load ptr, ptr %2, align 8, !tbaa !10
  %4 = getelementptr inbounds nuw %struct.MemBuffer, ptr %3, i32 0, i32 1
  %5 = load i64, ptr %4, align 8, !tbaa !36
  %6 = load ptr, ptr %2, align 8, !tbaa !10
  %7 = getelementptr inbounds nuw %struct.MemBuffer, ptr %6, i32 0, i32 0
  %8 = load i64, ptr %7, align 8, !tbaa !54
  %9 = sub i64 %5, %8
  ret i64 %9
}

; Function Attrs: nounwind uwtable
define internal i32 @ParseVP8X(ptr noundef %0) #0 {
  %2 = alloca i32, align 4
  %3 = alloca ptr, align 8
  %4 = alloca ptr, align 8
  %5 = alloca i32, align 4
  %6 = alloca i32, align 4
  store ptr %0, ptr %3, align 8, !tbaa !16
  call void @llvm.lifetime.start.p0(i64 8, ptr %4) #7
  %7 = load ptr, ptr %3, align 8, !tbaa !16
  %8 = getelementptr inbounds nuw %struct.WebPDemuxer, ptr %7, i32 0, i32 0
  store ptr %8, ptr %4, align 8, !tbaa !10
  call void @llvm.lifetime.start.p0(i64 4, ptr %5) #7
  %9 = load ptr, ptr %4, align 8, !tbaa !10
  %10 = call i64 @MemDataSize(ptr noundef %9)
  %11 = icmp ult i64 %10, 8
  br i1 %11, label %12, label %13

12:                                               ; preds = %1
  store i32 1, ptr %2, align 4
  store i32 1, ptr %6, align 4
  br label %91

13:                                               ; preds = %1
  %14 = load ptr, ptr %3, align 8, !tbaa !16
  %15 = getelementptr inbounds nuw %struct.WebPDemuxer, ptr %14, i32 0, i32 2
  store i32 1, ptr %15, align 4, !tbaa !91
  %16 = load ptr, ptr %4, align 8, !tbaa !10
  call void @Skip(ptr noundef %16, i64 noundef 4)
  %17 = load ptr, ptr %4, align 8, !tbaa !10
  %18 = call i32 @ReadLE32(ptr noundef %17)
  store i32 %18, ptr %5, align 4, !tbaa !8
  %19 = load i32, ptr %5, align 4, !tbaa !8
  %20 = icmp ugt i32 %19, -10
  br i1 %20, label %21, label %22

21:                                               ; preds = %13
  store i32 2, ptr %2, align 4
  store i32 1, ptr %6, align 4
  br label %91

22:                                               ; preds = %13
  %23 = load i32, ptr %5, align 4, !tbaa !8
  %24 = icmp ult i32 %23, 10
  br i1 %24, label %25, label %26

25:                                               ; preds = %22
  store i32 2, ptr %2, align 4
  store i32 1, ptr %6, align 4
  br label %91

26:                                               ; preds = %22
  %27 = load i32, ptr %5, align 4, !tbaa !8
  %28 = and i32 %27, 1
  %29 = load i32, ptr %5, align 4, !tbaa !8
  %30 = add i32 %29, %28
  store i32 %30, ptr %5, align 4, !tbaa !8
  %31 = load ptr, ptr %4, align 8, !tbaa !10
  %32 = load i32, ptr %5, align 4, !tbaa !8
  %33 = zext i32 %32 to i64
  %34 = call i32 @SizeIsInvalid(ptr noundef %31, i64 noundef %33)
  %35 = icmp ne i32 %34, 0
  br i1 %35, label %36, label %37

36:                                               ; preds = %26
  store i32 2, ptr %2, align 4
  store i32 1, ptr %6, align 4
  br label %91

37:                                               ; preds = %26
  %38 = load ptr, ptr %4, align 8, !tbaa !10
  %39 = call i64 @MemDataSize(ptr noundef %38)
  %40 = load i32, ptr %5, align 4, !tbaa !8
  %41 = zext i32 %40 to i64
  %42 = icmp ult i64 %39, %41
  br i1 %42, label %43, label %44

43:                                               ; preds = %37
  store i32 1, ptr %2, align 4
  store i32 1, ptr %6, align 4
  br label %91

44:                                               ; preds = %37
  %45 = load ptr, ptr %4, align 8, !tbaa !10
  %46 = call zeroext i8 @ReadByte(ptr noundef %45)
  %47 = zext i8 %46 to i32
  %48 = load ptr, ptr %3, align 8, !tbaa !16
  %49 = getelementptr inbounds nuw %struct.WebPDemuxer, ptr %48, i32 0, i32 3
  store i32 %47, ptr %49, align 8, !tbaa !47
  %50 = load ptr, ptr %4, align 8, !tbaa !10
  call void @Skip(ptr noundef %50, i64 noundef 3)
  %51 = load ptr, ptr %4, align 8, !tbaa !10
  %52 = call i32 @ReadLE24s(ptr noundef %51)
  %53 = add nsw i32 1, %52
  %54 = load ptr, ptr %3, align 8, !tbaa !16
  %55 = getelementptr inbounds nuw %struct.WebPDemuxer, ptr %54, i32 0, i32 4
  store i32 %53, ptr %55, align 4, !tbaa !43
  %56 = load ptr, ptr %4, align 8, !tbaa !10
  %57 = call i32 @ReadLE24s(ptr noundef %56)
  %58 = add nsw i32 1, %57
  %59 = load ptr, ptr %3, align 8, !tbaa !16
  %60 = getelementptr inbounds nuw %struct.WebPDemuxer, ptr %59, i32 0, i32 5
  store i32 %58, ptr %60, align 8, !tbaa !45
  %61 = load ptr, ptr %3, align 8, !tbaa !16
  %62 = getelementptr inbounds nuw %struct.WebPDemuxer, ptr %61, i32 0, i32 4
  %63 = load i32, ptr %62, align 4, !tbaa !43
  %64 = sext i32 %63 to i64
  %65 = load ptr, ptr %3, align 8, !tbaa !16
  %66 = getelementptr inbounds nuw %struct.WebPDemuxer, ptr %65, i32 0, i32 5
  %67 = load i32, ptr %66, align 8, !tbaa !45
  %68 = sext i32 %67 to i64
  %69 = mul i64 %64, %68
  %70 = icmp uge i64 %69, 4294967296
  br i1 %70, label %71, label %72

71:                                               ; preds = %44
  store i32 2, ptr %2, align 4
  store i32 1, ptr %6, align 4
  br label %91

72:                                               ; preds = %44
  %73 = load ptr, ptr %4, align 8, !tbaa !10
  %74 = load i32, ptr %5, align 4, !tbaa !8
  %75 = sub i32 %74, 10
  %76 = zext i32 %75 to i64
  call void @Skip(ptr noundef %73, i64 noundef %76)
  %77 = load ptr, ptr %3, align 8, !tbaa !16
  %78 = getelementptr inbounds nuw %struct.WebPDemuxer, ptr %77, i32 0, i32 1
  store i32 1, ptr %78, align 8, !tbaa !25
  %79 = load ptr, ptr %4, align 8, !tbaa !10
  %80 = call i32 @SizeIsInvalid(ptr noundef %79, i64 noundef 8)
  %81 = icmp ne i32 %80, 0
  br i1 %81, label %82, label %83

82:                                               ; preds = %72
  store i32 2, ptr %2, align 4
  store i32 1, ptr %6, align 4
  br label %91

83:                                               ; preds = %72
  %84 = load ptr, ptr %4, align 8, !tbaa !10
  %85 = call i64 @MemDataSize(ptr noundef %84)
  %86 = icmp ult i64 %85, 8
  br i1 %86, label %87, label %88

87:                                               ; preds = %83
  store i32 1, ptr %2, align 4
  store i32 1, ptr %6, align 4
  br label %91

88:                                               ; preds = %83
  %89 = load ptr, ptr %3, align 8, !tbaa !16
  %90 = call i32 @ParseVP8XChunks(ptr noundef %89)
  store i32 %90, ptr %2, align 4
  store i32 1, ptr %6, align 4
  br label %91

91:                                               ; preds = %88, %87, %82, %71, %43, %36, %25, %21, %12
  call void @llvm.lifetime.end.p0(i64 4, ptr %5) #7
  call void @llvm.lifetime.end.p0(i64 8, ptr %4) #7
  %92 = load i32, ptr %2, align 4
  ret i32 %92
}