; Function Attrs: nounwind uwtable
define internal range(i32 0, 3) i32 @ParseVP8X(ptr noundef captures(none) %0) #1 {
  %.val33 = load i64, ptr %0, align 8, !tbaa !89
  %2 = getelementptr i8, ptr %0, i64 8
  %.val34 = load i64, ptr %2, align 8, !tbaa !91
  %3 = sub i64 %.val34, %.val33
  %4 = icmp ult i64 %3, 8
  br i1 %4, label %61, label %5

5:                                                ; preds = %1
  %6 = getelementptr inbounds nuw i8, ptr %0, i64 44
  store i32 1, ptr %6, align 4, !tbaa !92
  %7 = add i64 %.val33, 4
  store i64 %7, ptr %0, align 8, !tbaa !89
  %8 = getelementptr inbounds nuw i8, ptr %0, i64 32
  %9 = load ptr, ptr %8, align 8, !tbaa !93
  %10 = getelementptr inbounds nuw i8, ptr %9, i64 %7
  %.val.i.i = load i32, ptr %10, align 1
  %11 = add i64 %.val33, 8
  store i64 %11, ptr %0, align 8, !tbaa !89
  %12 = add i32 %.val.i.i, 9
  %or.cond = icmp ult i32 %12, 19
  br i1 %or.cond, label %61, label %13

13:                                               ; preds = %5
  %14 = and i32 %.val.i.i, 1
  %15 = add nuw i32 %14, %.val.i.i
  %16 = zext i32 %15 to i64
  %17 = getelementptr i8, ptr %0, i64 16
  %.val36 = load i64, ptr %17, align 8, !tbaa !90
  %18 = sub i64 %.val36, %11
  %.not = icmp ult i64 %18, %16
  br i1 %.not, label %61, label %19

19:                                               ; preds = %13
  %20 = sub i64 %.val34, %11
  %21 = icmp ult i64 %20, %16
  br i1 %21, label %61, label %22

22:                                               ; preds = %19
  %23 = getelementptr inbounds nuw i8, ptr %9, i64 %11
  %24 = load i8, ptr %23, align 1, !tbaa !94
  %25 = zext i8 %24 to i32
  %26 = getelementptr inbounds nuw i8, ptr %0, i64 48
  store i32 %25, ptr %26, align 8, !tbaa !43
  %27 = add i64 %.val33, 12
  store i64 %27, ptr %0, align 8, !tbaa !89
  %28 = getelementptr inbounds nuw i8, ptr %9, i64 %27
  %.val.i.i39 = load i16, ptr %28, align 1
  %29 = zext i16 %.val.i.i39 to i32
  %30 = getelementptr inbounds nuw i8, ptr %28, i64 2
  %31 = load i8, ptr %30, align 1, !tbaa !94
  %32 = zext i8 %31 to i32
  %33 = shl nuw nsw i32 %32, 16
  %34 = or disjoint i32 %33, %29
  %35 = add i64 %.val33, 15
  store i64 %35, ptr %0, align 8, !tbaa !89
  %36 = add nuw nsw i32 %34, 1
  %37 = getelementptr inbounds nuw i8, ptr %0, i64 52
  store i32 %36, ptr %37, align 4, !tbaa !22
  %38 = getelementptr inbounds nuw i8, ptr %9, i64 %35
  %.val.i.i40 = load i16, ptr %38, align 1
  %39 = zext i16 %.val.i.i40 to i32
  %40 = getelementptr inbounds nuw i8, ptr %38, i64 2
  %41 = load i8, ptr %40, align 1, !tbaa !94
  %42 = zext i8 %41 to i32
  %43 = shl nuw nsw i32 %42, 16
  %44 = or disjoint i32 %43, %39
  %45 = add i64 %.val33, 18
  store i64 %45, ptr %0, align 8, !tbaa !89
  %46 = add nuw nsw i32 %44, 1
  %47 = getelementptr inbounds nuw i8, ptr %0, i64 56
  store i32 %46, ptr %47, align 8, !tbaa !23
  %umul = tail call { i32, i1 } @llvm.umul.with.overflow.i32(i32 %36, i32 %46)
  %48 = extractvalue { i32, i1 } %umul, 1
  br i1 %48, label %61, label %49

49:                                               ; preds = %22
  %50 = add i32 %15, -10
  %51 = zext i32 %50 to i64
  %52 = add i64 %45, %51
  store i64 %52, ptr %0, align 8, !tbaa !89
  %53 = getelementptr inbounds nuw i8, ptr %0, i64 40
  store i32 1, ptr %53, align 8, !tbaa !13
  %54 = sub i64 %.val36, %52
  %55 = icmp ugt i64 %54, 7
  br i1 %55, label %56, label %61

56:                                               ; preds = %49
  %57 = sub i64 %.val34, %52
  %58 = icmp ult i64 %57, 8
  br i1 %58, label %61, label %59

59:                                               ; preds = %56
  %60 = tail call fastcc i32 @ParseVP8XChunks(ptr noundef nonnull %0)
  br label %61

61:                                               ; preds = %56, %49, %22, %19, %13, %5, %1, %59
  %.0 = phi i32 [ %60, %59 ], [ 1, %1 ], [ 2, %5 ], [ 2, %13 ], [ 1, %19 ], [ 2, %22 ], [ 2, %49 ], [ 1, %56 ]
  ret i32 %.0
}